target datalayout = "e-m:e-p270:32:32-p271:32:32-p272:64:64-i64:64-i128:128-f80:128-n8:16:32:64-S128"
target triple = "x86_64-pc-linux-gnu"

%struct.Gia_Man_t_ = type { ptr, ptr, i32, i32, i32, i32, ptr, ptr, i32, i32, i32, ptr, ptr, %struct.Vec_Int_t_, %struct.Vec_Int_t_, i32, i32, i32, %struct.Vec_Int_t_, ptr, ptr, ptr, i32, i32, i32, i32, ptr, ptr, ptr, ptr, ptr, i32, i32, ptr, i32, ptr, ptr, ptr, ptr, ptr, ptr, ptr, ptr, ptr, ptr, ptr, ptr, ptr, ptr, ptr, ptr, ptr, ptr, %struct.Vec_Int_t_, %struct.Vec_Int_t_, ptr, ptr, ptr, ptr, ptr, ptr, ptr, ptr, ptr, ptr, ptr, ptr, ptr, ptr, ptr, ptr, ptr, ptr, ptr, ptr, ptr, i32, float, float, ptr, ptr, i32, ptr, ptr, ptr, ptr, ptr, ptr, ptr, ptr, ptr, ptr, ptr, ptr, ptr, ptr, ptr, i64, i64, ptr, ptr, i32, i32, i32, i32, i32, i32, i32, i32, i32, i32, i32, i32, ptr, ptr, ptr, ptr, ptr, ptr, ptr, ptr, i32, i32, i32, ptr, i32, i32, ptr, ptr, ptr, ptr, ptr, ptr, i32, i32, ptr, %struct.Vec_Int_t_, %struct.Vec_Int_t_, %struct.Vec_Int_t_, ptr, ptr, ptr, i32, i32, i32, i32, ptr, ptr, ptr, ptr, ptr }
%struct.Vec_Int_t_ = type { i32, i32, ptr }
%struct.Gia_Obj_t_ = type <{ i64, i32 }>

; Function Attrs: inlinehint nounwind uwtable
define internal i32 @Gia_ObjFaninC1(ptr noundef %0) #2 {
  %2 = alloca ptr, align 8
  store ptr %0, ptr %2, align 8, !tbaa !43
  %3 = load ptr, ptr %2, align 8, !tbaa !43
  %4 = load i64, ptr %3, align 4
  %5 = lshr i64 %4, 61
  %6 = and i64 %5, 1
  %7 = trunc i64 %6 to i32
  ret i32 %7
}

; Function Attrs: inlinehint nounwind uwtable
define internal i32 @Gia_ObjFaninC0(ptr noundef %0) #2 {
  %2 = alloca ptr, align 8
  store ptr %0, ptr %2, align 8, !tbaa !43
  %3 = load ptr, ptr %2, align 8, !tbaa !43
  %4 = load i64, ptr %3, align 4
  %5 = lshr i64 %4, 29
  %6 = and i64 %5, 1
  %7 = trunc i64 %6 to i32
  ret i32 %7
}

; Function Attrs: inlinehint nounwind uwtable
define internal i32 @Gia_ObjPhase(ptr noundef %0) #2 {
  %2 = alloca ptr, align 8
  store ptr %0, ptr %2, align 8, !tbaa !43
  %3 = load ptr, ptr %2, align 8, !tbaa !43
  %4 = load i64, ptr %3, align 4
  %5 = lshr i64 %4, 63
  %6 = trunc i64 %5 to i32
  ret i32 %6
}

; Function Attrs: inlinehint nounwind uwtable
define internal ptr @Gia_ObjFanin1(ptr noundef %0) #2 {
  %2 = alloca ptr, align 8
  store ptr %0, ptr %2, align 8, !tbaa !43
  %3 = load ptr, ptr %2, align 8, !tbaa !43
  %4 = load ptr, ptr %2, align 8, !tbaa !43
  %5 = load i64, ptr %4, align 4
  %6 = lshr i64 %5, 32
  %7 = and i64 %6, 536870911
  %8 = trunc i64 %7 to i32
  %9 = sext i32 %8 to i64
  %10 = sub i64 0, %9
  %11 = getelementptr inbounds %struct.Gia_Obj_t_, ptr %3, i64 %10
  ret ptr %11
}

; Function Attrs: inlinehint nounwind uwtable
define internal ptr @Gia_ObjFanin0(ptr noundef %0) #2 {
  %2 = alloca ptr, align 8
  store ptr %0, ptr %2, align 8, !tbaa !43
  %3 = load ptr, ptr %2, align 8, !tbaa !43
  %4 = load ptr, ptr %2, align 8, !tbaa !43
  %5 = load i64, ptr %4, align 4
  %6 = and i64 %5, 536870911
  %7 = trunc i64 %6 to i32
  %8 = sext i32 %7 to i64
  %9 = sub i64 0, %8
  %10 = getelementptr inbounds %struct.Gia_Obj_t_, ptr %3, i64 %9
  ret ptr %10
}

; Function Attrs: inlinehint nounwind uwtable
define internal i32 @Abc_LitIsCompl(i32 noundef %0) #2 {
  %2 = alloca i32, align 4
  store i32 %0, ptr %2, align 4, !tbaa !34
  %3 = load i32, ptr %2, align 4, !tbaa !34
  %4 = and i32 %3, 1
  ret i32 %4
}

; Function Attrs: inlinehint nounwind uwtable
define internal i32 @Abc_Lit2Var(i32 noundef %0) #2 {
  %2 = alloca i32, align 4
  store i32 %0, ptr %2, align 4, !tbaa !34
  %3 = load i32, ptr %2, align 4, !tbaa !34
  %4 = ashr i32 %3, 1
  ret i32 %4
}

; Function Attrs: inlinehint nounwind uwtable
define internal i32 @Gia_ObjId(ptr noundef %0, ptr noundef %1) #2 {
  %3 = alloca ptr, align 8
  %4 = alloca ptr, align 8
  store ptr %0, ptr %3, align 8, !tbaa !3
  store ptr %1, ptr %4, align 8, !tbaa !43
  %5 = load ptr, ptr %4, align 8, !tbaa !43
  %6 = load ptr, ptr %3, align 8, !tbaa !3
  %7 = getelementptr inbounds nuw %struct.Gia_Man_t_, ptr %6, i32 0, i32 6
  %8 = load ptr, ptr %7, align 8, !tbaa !44
  %9 = ptrtoint ptr %5 to i64
  %10 = ptrtoint ptr %8 to i64
  %11 = sub i64 %9, %10
  %12 = sdiv exact i64 %11, 12
  %13 = trunc i64 %12 to i32
  ret i32 %13
}

; Function Attrs: inlinehint nounwind uwtable
define internal i32 @Gia_ManAppendAnd(ptr noundef %0, i32 noundef %1, i32 noundef %2) #2 {
  %4 = alloca ptr, align 8
  %5 = alloca i32, align 4
  %6 = alloca i32, align 4
  %7 = alloca ptr, align 8
  %8 = alloca ptr, align 8
  %9 = alloca ptr, align 8
  %10 = alloca ptr, align 8
  %11 = alloca ptr, align 8
  store ptr %0, ptr %4, align 8, !tbaa !3
  store i32 %1, ptr %5, align 4, !tbaa !34
  store i32 %2, ptr %6, align 4, !tbaa !34
  call void @llvm.lifetime.start.p0(i64 8, ptr %7) #12
  %12 = load ptr, ptr %4, align 8, !tbaa !3
  %13 = call ptr @Gia_ManAppendObj(ptr noundef %12)
  store ptr %13, ptr %7, align 8, !tbaa !43
  %14 = load i32, ptr %5, align 4, !tbaa !34
  %15 = load i32, ptr %6, align 4, !tbaa !34
  %16 = icmp slt i32 %14, %15
  br i1 %16, label %17, label %61

17:                                               ; preds = %3
  %18 = load ptr, ptr %4, align 8, !tbaa !3
  %19 = load ptr, ptr %7, align 8, !tbaa !43
  %20 = call i32 @Gia_ObjId(ptr noundef %18, ptr noundef %19)
  %21 = load i32, ptr %5, align 4, !tbaa !34
  %22 = call i32 @Abc_Lit2Var(i32 noundef %21)
  %23 = sub nsw i32 %20, %22
  %24 = load ptr, ptr %7, align 8, !tbaa !43
  %25 = zext i32 %23 to i64
  %26 = load i64, ptr %24, align 4
  %27 = and i64 %25, 536870911
  %28 = and i64 %26, -536870912
  %29 = or i64 %28, %27
  store i64 %29, ptr %24, align 4
  %30 = load i32, ptr %5, align 4, !tbaa !34
  %31 = call i32 @Abc_LitIsCompl(i32 noundef %30)
  %32 = load ptr, ptr %7, align 8, !tbaa !43
  %33 = zext i32 %31 to i64
  %34 = load i64, ptr %32, align 4
  %35 = and i64 %33, 1
  %36 = shl i64 %35, 29
  %37 = and i64 %34, -536870913
  %38 = or i64 %37, %36
  store i64 %38, ptr %32, align 4
  %39 = load ptr, ptr %4, align 8, !tbaa !3
  %40 = load ptr, ptr %7, align 8, !tbaa !43
  %41 = call i32 @Gia_ObjId(ptr noundef %39, ptr noundef %40)
  %42 = load i32, ptr %6, align 4, !tbaa !34
  %43 = call i32 @Abc_Lit2Var(i32 noundef %42)
  %44 = sub nsw i32 %41, %43
  %45 = load ptr, ptr %7, align 8, !tbaa !43
  %46 = zext i32 %44 to i64
  %47 = load i64, ptr %45, align 4
  %48 = and i64 %46, 536870911
  %49 = shl i64 %48, 32
  %50 = and i64 %47, -2305843004918726657
  %51 = or i64 %50, %49
  store i64 %51, ptr %45, align 4
  %52 = load i32, ptr %6, align 4, !tbaa !34
  %53 = call i32 @Abc_LitIsCompl(i32 noundef %52)
  %54 = load ptr, ptr %7, align 8, !tbaa !43
  %55 = zext i32 %53 to i64
  %56 = load i64, ptr %54, align 4
  %57 = and i64 %55, 1
  %58 = shl i64 %57, 61
  %59 = and i64 %56, -2305843009213693953
  %60 = or i64 %59, %58
  store i64 %60, ptr %54, align 4
  br label %105

61:                                               ; preds = %3
  %62 = load ptr, ptr %4, align 8, !tbaa !3
  %63 = load ptr, ptr %7, align 8, !tbaa !43
  %64 = call i32 @Gia_ObjId(ptr noundef %62, ptr noundef %63)
  %65 = load i32, ptr %5, align 4, !tbaa !34
  %66 = call i32 @Abc_Lit2Var(i32 noundef %65)
  %67 = sub nsw i32 %64, %66
  %68 = load ptr, ptr %7, align 8, !tbaa !43
  %69 = zext i32 %67 to i64
  %70 = load i64, ptr %68, align 4
  %71 = and i64 %69, 536870911
  %72 = shl i64 %71, 32
  %73 = and i64 %70, -2305843004918726657
  %74 = or i64 %73, %72
  store i64 %74, ptr %68, align 4
  %75 = load i32, ptr %5, align 4, !tbaa !34
  %76 = call i32 @Abc_LitIsCompl(i32 noundef %75)
  %77 = load ptr, ptr %7, align 8, !tbaa !43
  %78 = zext i32 %76 to i64
  %79 = load i64, ptr %77, align 4
  %80 = and i64 %78, 1
  %81 = shl i64 %80, 61
  %82 = and i64 %79, -2305843009213693953
  %83 = or i64 %82, %81
  store i64 %83, ptr %77, align 4
  %84 = load ptr, ptr %4, align 8, !tbaa !3
  %85 = load ptr, ptr %7, align 8, !tbaa !43
  %86 = call i32 @Gia_ObjId(ptr noundef %84, ptr noundef %85)
  %87 = load i32, ptr %6, align 4, !tbaa !34
  %88 = call i32 @Abc_Lit2Var(i32 noundef %87)
  %89 = sub nsw i32 %86, %88
  %90 = load ptr, ptr %7, align 8, !tbaa !43
  %91 = zext i32 %89 to i64
  %92 = load i64, ptr %90, align 4
  %93 = and i64 %91, 536870911
  %94 = and i64 %92, -536870912
  %95 = or i64 %94, %93
  store i64 %95, ptr %90, align 4
  %96 = load i32, ptr %6, align 4, !tbaa !34
  %97 = call i32 @Abc_LitIsCompl(i32 noundef %96)
  %98 = load ptr, ptr %7, align 8, !tbaa !43
  %99 = zext i32 %97 to i64
  %100 = load i64, ptr %98, align 4
  %101 = and i64 %99, 1
  %102 = shl i64 %101, 29
  %103 = and i64 %100, -536870913
  %104 = or i64 %103, %102
  store i64 %104, ptr %98, align 4
  br label %105

105:                                              ; preds = %61, %17
  %106 = load ptr, ptr %4, align 8, !tbaa !3
  %107 = getelementptr inbounds nuw %struct.Gia_Man_t_, ptr %106, i32 0, i32 33
  %108 = load ptr, ptr %107, align 8, !tbaa !59
  %109 = icmp ne ptr %108, null
  br i1 %109, label %110, label %119

110:                                              ; preds = %105
  %111 = load ptr, ptr %4, align 8, !tbaa !3
  %112 = load ptr, ptr %7, align 8, !tbaa !43
  %113 = call ptr @Gia_ObjFanin0(ptr noundef %112)
  %114 = load ptr, ptr %7, align 8, !tbaa !43
  call void @Gia_ObjAddFanout(ptr noundef %111, ptr noundef %113, ptr noundef %114)
  %115 = load ptr, ptr %4, align 8, !tbaa !3
  %116 = load ptr, ptr %7, align 8, !tbaa !43
  %117 = call ptr @Gia_ObjFanin1(ptr noundef %116)
  %118 = load ptr, ptr %7, align 8, !tbaa !43
  call void @Gia_ObjAddFanout(ptr noundef %115, ptr noundef %117, ptr noundef %118)
  br label %119

119:                                              ; preds = %110, %105
  %120 = load ptr, ptr %4, align 8, !tbaa !3
  %121 = getelementptr inbounds nuw %struct.Gia_Man_t_, ptr %120, i32 0, i32 16
  %122 = load i32, ptr %121, align 4, !tbaa !60
  %123 = icmp ne i32 %122, 0
  br i1 %123, label %124, label %181

124:                                              ; preds = %119
  call void @llvm.lifetime.start.p0(i64 8, ptr %8) #12
  %125 = load ptr, ptr %7, align 8, !tbaa !43
  %126 = call ptr @Gia_ObjFanin0(ptr noundef %125)
  store ptr %126, ptr %8, align 8, !tbaa !43
  call void @llvm.lifetime.start.p0(i64 8, ptr %9) #12
  %127 = load ptr, ptr %7, align 8, !tbaa !43
  %128 = call ptr @Gia_ObjFanin1(ptr noundef %127)
  store ptr %128, ptr %9, align 8, !tbaa !43
  %129 = load ptr, ptr %8, align 8, !tbaa !43
  %130 = load i64, ptr %129, align 4
  %131 = lshr i64 %130, 30
  %132 = and i64 %131, 1
  %133 = trunc i64 %132 to i32
  %134 = icmp ne i32 %133, 0
  br i1 %134, label %135, label %140

135:                                              ; preds = %124
  %136 = load ptr, ptr %8, align 8, !tbaa !43
  %137 = load i64, ptr %136, align 4
  %138 = and i64 %137, -4611686018427387905
  %139 = or i64 %138, 4611686018427387904
  store i64 %139, ptr %136, align 4
  br label %145

140:                                              ; preds = %124
  %141 = load ptr, ptr %8, align 8, !tbaa !43
  %142 = load i64, ptr %141, align 4
  %143 = and i64 %142, -1073741825
  %144 = or i64 %143, 1073741824
  store i64 %144, ptr %141, align 4
  br label %145

145:                                              ; preds = %140, %135
  %146 = load ptr, ptr %9, align 8, !tbaa !43
  %147 = load i64, ptr %146, align 4
  %148 = lshr i64 %147, 30
  %149 = and i64 %148, 1
  %150 = trunc i64 %149 to i32
  %151 = icmp ne i32 %150, 0
  br i1 %151, label %152, label %157

152:                                              ; preds = %145
  %153 = load ptr, ptr %9, align 8, !tbaa !43
  %154 = load i64, ptr %153, align 4
  %155 = and i64 %154, -4611686018427387905
  %156 = or i64 %155, 4611686018427387904
  store i64 %156, ptr %153, align 4
  br label %162

157:                                              ; preds = %145
  %158 = load ptr, ptr %9, align 8, !tbaa !43
  %159 = load i64, ptr %158, align 4
  %160 = and i64 %159, -1073741825
  %161 = or i64 %160, 1073741824
  store i64 %161, ptr %158, align 4
  br label %162

162:                                              ; preds = %157, %152
  %163 = load ptr, ptr %8, align 8, !tbaa !43
  %164 = call i32 @Gia_ObjPhase(ptr noundef %163)
  %165 = load ptr, ptr %7, align 8, !tbaa !43
  %166 = call i32 @Gia_ObjFaninC0(ptr noundef %165)
  %167 = xor i32 %164, %166
  %168 = load ptr, ptr %9, align 8, !tbaa !43
  %169 = call i32 @Gia_ObjPhase(ptr noundef %168)
  %170 = load ptr, ptr %7, align 8, !tbaa !43
  %171 = call i32 @Gia_ObjFaninC1(ptr noundef %170)
  %172 = xor i32 %169, %171
  %173 = and i32 %167, %172
  %174 = load ptr, ptr %7, align 8, !tbaa !43
  %175 = zext i32 %173 to i64
  %176 = load i64, ptr %174, align 4
  %177 = and i64 %175, 1
  %178 = shl i64 %177, 63
  %179 = and i64 %176, 9223372036854775807
  %180 = or i64 %179, %178
  store i64 %180, ptr %174, align 4
  call void @llvm.lifetime.end.p0(i64 8, ptr %9) #12
  call void @llvm.lifetime.end.p0(i64 8, ptr %8) #12
  br label %181

181:                                              ; preds = %162, %119
  %182 = load ptr, ptr %4, align 8, !tbaa !3
  %183 = getelementptr inbounds nuw %struct.Gia_Man_t_, ptr %182, i32 0, i32 107
  %184 = load i32, ptr %183, align 8, !tbaa !61
  %185 = icmp ne i32 %184, 0
  br i1 %185, label %186, label %213

186:                                              ; preds = %181
  call void @llvm.lifetime.start.p0(i64 8, ptr %10) #12
  %187 = load ptr, ptr %7, align 8, !tbaa !43
  %188 = call ptr @Gia_ObjFanin0(ptr noundef %187)
  store ptr %188, ptr %10, align 8, !tbaa !43
  call void @llvm.lifetime.start.p0(i64 8, ptr %11) #12
  %189 = load ptr, ptr %7, align 8, !tbaa !43
  %190 = call ptr @Gia_ObjFanin1(ptr noundef %189)
  store ptr %190, ptr %11, align 8, !tbaa !43
  %191 = load ptr, ptr %10, align 8, !tbaa !43
  %192 = call i32 @Gia_ObjPhase(ptr noundef %191)
  %193 = load ptr, ptr %7, align 8, !tbaa !43
  %194 = call i32 @Gia_ObjFaninC0(ptr noundef %193)
  %195 = xor i32 %192, %194
  %196 = load ptr, ptr %11, align 8, !tbaa !43
  %197 = call i32 @Gia_ObjPhase(ptr noundef %196)
  %198 = load ptr, ptr %7, align 8, !tbaa !43
  %199 = call i32 @Gia_ObjFaninC1(ptr noundef %198)
  %200 = xor i32 %197, %199
  %201 = and i32 %195, %200
  %202 = load ptr, ptr %7, align 8, !tbaa !43
  %203 = zext i32 %201 to i64
  %204 = load i64, ptr %202, align 4
  %205 = and i64 %203, 1
  %206 = shl i64 %205, 63
  %207 = and i64 %204, 9223372036854775807
  %208 = or i64 %207, %206
  store i64 %208, ptr %202, align 4
  %209 = load ptr, ptr %4, align 8, !tbaa !3
  %210 = load ptr, ptr %4, align 8, !tbaa !3
  %211 = load ptr, ptr %7, align 8, !tbaa !43
  %212 = call i32 @Gia_ObjId(ptr noundef %210, ptr noundef %211)
  call void @Gia_ManBuiltInSimPerform(ptr noundef %209, i32 noundef %212)
  call void @llvm.lifetime.end.p0(i64 8, ptr %11) #12
  call void @llvm.lifetime.end.p0(i64 8, ptr %10) #12
  br label %213

213:                                              ; preds = %186, %181
  %214 = load ptr, ptr %4, align 8, !tbaa !3
  %215 = getelementptr inbounds nuw %struct.Gia_Man_t_, ptr %214, i32 0, i32 135
  %216 = load ptr, ptr %215, align 8, !tbaa !62
  %217 = icmp ne ptr %216, null
  br i1 %217, label %218, label %221

218:                                              ; preds = %213
  %219 = load ptr, ptr %4, align 8, !tbaa !3
  %220 = load ptr, ptr %7, align 8, !tbaa !43
  call void @Gia_ManQuantSetSuppAnd(ptr noundef %219, ptr noundef %220)
  br label %221

221:                                              ; preds = %218, %213
  %222 = load ptr, ptr %4, align 8, !tbaa !3
  %223 = load ptr, ptr %7, align 8, !tbaa !43
  %224 = call i32 @Gia_ObjId(ptr noundef %222, ptr noundef %223)
  %225 = shl i32 %224, 1
  call void @llvm.lifetime.end.p0(i64 8, ptr %7) #12
  ret i32 %225
}